Certificate:
    Data:
        Version: 3 (0x2)
        Serial Number:
            01:24:ec:6c:da:77:8c:32:64:46:97:41:0e:2c:1d:d2
        Signature Algorithm: sha256WithRSAEncryption
        Issuer: CN=ca1
        Validity
            Not Before: Dec 14 01:29:25 2022 GMT
            Not After : Mar 18 01:29:25 2025 GMT
        Subject: CN=127.0.0.1
        Subject Public Key Info:
            Public Key Algorithm: rsaEncryption
                Public-Key: (2048 bit)
                Modulus:
                    00:94:46:3d:d3:dc:06:02:9a:f1:5a:af:89:03:89:
                    0e:5f:c3:5b:e9:69:b6:71:10:6e:16:96:4f:d1:90:
                    45:c4:ed:7a:ce:98:d3:81:fe:86:d0:ee:51:ab:76:
                    20:5a:de:36:0e:cb:48:27:11:76:bc:2e:b4:41:08:
                    ba:66:20:df:55:66:ee:cc:95:d5:0c:35:04:e0:22:
                    f7:cf:dd:60:8e:24:5c:98:8c:05:4b:47:a2:9b:1e:
                    b5:db:d7:bb:ea:9d:09:02:d5:6d:c6:7c:d2:a1:e2:
                    74:c5:ac:46:bf:21:c3:bb:58:92:5a:61:f4:69:44:
                    87:cb:a3:ec:8d:74:ed:cd:a0:e9:5c:31:6e:01:68:
                    a5:24:82:5e:54:4e:a5:f4:fb:33:76:c1:94:84:85:
                    04:bf:b3:68:72:7a:c0:de:cd:5c:85:9c:e2:6e:18:
                    fe:c6:f0:ea:31:73:5d:46:38:33:a6:a5:86:e5:74:
                    90:81:e0:51:23:94:ec:ad:52:76:46:cd:ee:1a:0e:
                    a0:ca:75:5a:13:26:cc:30:85:83:37:0b:25:6d:1f:
                    41:e9:59:a7:76:0f:a8:f2:96:f3:aa:c0:63:7a:47:
                    a6:b6:00:9c:13:2b:e3:62:57:6c:96:f0:b8:d1:78:
                    e6:69:a8:ca:31:29:49:9c:aa:97:2c:26:db:d2:39:
                    6d:cf
                Exponent: 65537 (0x10001)
        X509v3 extensions:
            X509v3 Basic Constraints: 
                CA:FALSE
            X509v3 Subject Key Identifier: 
                81:9D:02:62:77:A3:25:10:A6:EA:8E:27:53:40:FF:0D:7C:3E:66:B6
            X509v3 Authority Key Identifier: 
                keyid:5B:1B:75:74:33:B7:91:97:9A:E7:38:DF:C2:D0:80:D3:DB:D4:FA:E5
                DirName:/CN=ca1
                serial:DC:11:83:1C:A3:77:F2:8D:9D:EF:4B:1D:45:48:6E:FB:BC:50:C9
            X509v3 Extended Key Usage: 
                TLS Web Server Authentication
            X509v3 Key Usage: 
                Digital Signature, Key Encipherment
            X509v3 Subject Alternative Name: 
                IP Address:127.0.0.1
    Signature Algorithm: sha256WithRSAEncryption
    Signature Value:
        76:21:d8:cb:6f:4d:a8:4f:b0:74:73:5a:2c:57:e8:aa:77:9c:
        56:45:06:d6:cb:fb:b9:bd:e5:77:69:f0:28:3d:a4:64:a7:0c:
        1d:b2:9e:b6:d8:69:2f:50:3b:1e:a1:00:f6:59:65:d9:93:3c:
        e2:3c:0f:2c:7d:a3:24:31:e4:c3:61:6c:c8:2b:96:34:ef:fa:
        b5:bc:fd:f0:a6:78:bc:6b:93:56:4d:bf:02:a4:bf:b8:f2:45:
        3f:35:65:e5:a3:d4:ab:4a:e6:d2:96:97:bb:32:91:34:8f:1d:
        b9:b6:ea:41:f1:80:ff:23:40:57:63:78:a4:af:5a:13:db:a4:
        35:f8:b5:15:c0:a8:66:a3:c8:23:ea:3f:cc:e2:17:45:04:61:
        75:73:ac:14:b3:eb:b3:5e:d7:bc:97:f3:4d:f7:5a:c6:8d:69:
        39:2b:2f:6e:61:f2:8c:51:7d:b3:0b:6d:10:3b:a3:46:73:7a:
        b8:c4:22:f5:6a:af:6c:5e:6e:1f:47:0f:e4:32:e2:c2:9b:10:
        9b:c8:26:a9:66:42:35:5d:a3:55:68:47:61:c6:2c:31:4e:87:
        bb:03:c3:d5:89:b9:65:f5:fa:3e:0b:8e:4c:df:a7:18:10:cd:
        4a:c3:c5:f1:27:26:ff:9d:19:3f:ea:9b:82:01:1f:9c:ac:86:
        d8:92:d2:0d
-----BEGIN CERTIFICATE-----
MIIDWDCCAkCgAwIBAgIQASTsbNp3jDJkRpdBDiwd0jANBgkqhkiG9w0BAQsFADAO
MQwwCgYDVQQDDANjYTEwHhcNMjIxMjE0MDEyOTI1WhcNMjUwMzE4MDEyOTI1WjAU
MRIwEAYDVQQDDAkxMjcuMC4wLjEwggEiMA0GCSqGSIb3DQEBAQUAA4IBDwAwggEK
AoIBAQCURj3T3AYCmvFar4kDiQ5fw1vpabZxEG4Wlk/RkEXE7XrOmNOB/obQ7lGr
diBa3jYOy0gnEXa8LrRBCLpmIN9VZu7MldUMNQTgIvfP3WCOJFyYjAVLR6KbHrXb
17vqnQkC1W3GfNKh4nTFrEa/IcO7WJJaYfRpRIfLo+yNdO3NoOlcMW4BaKUkgl5U
TqX0+zN2wZSEhQS/s2hyesDezVyFnOJuGP7G8Ooxc11GODOmpYbldJCB4FEjlOyt
UnZGze4aDqDKdVoTJswwhYM3CyVtH0HpWad2D6jylvOqwGN6R6a2AJwTK+NiV2yW
8LjReOZpqMoxKUmcqpcsJtvSOW3PAgMBAAGjgaswgagwCQYDVR0TBAIwADAdBgNV
HQ4EFgQUgZ0CYnejJRCm6o4nU0D/DXw+ZrYwSQYDVR0jBEIwQIAUWxt1dDO3kZea
5zjfwtCA09vU+uWhEqQQMA4xDDAKBgNVBAMMA2NhMYIUANwRgxyjd/KNne9LHUVI
bvu8UMkwEwYDVR0lBAwwCgYIKwYBBQUHAwEwCwYDVR0PBAQDAgWgMA8GA1UdEQQI
MAaHBH8AAAEwDQYJKoZIhvcNAQELBQADggEBAHYh2MtvTahPsHRzWixX6Kp3nFZF
BtbL+7m95Xdp8Cg9pGSnDB2ynrbYaS9QOx6hAPZZZdmTPOI8Dyx9oyQx5MNhbMgr
ljTv+rW8/fCmeLxrk1ZNvwKkv7jyRT81ZeWj1KtK5tKWl7sykTSPHbm26kHxgP8j
QFdjeKSvWhPbpDX4tRXAqGajyCPqP8ziF0UEYXVzrBSz67Ne17yX8033WsaNaTkr
L25h8oxRfbMLbRA7o0ZzerjEIvVqr2xebh9HD+Qy4sKbEJvIJqlmQjVdo1VoR2HG
LDFOh7sDw9WJuWX1+j4LjkzfpxgQzUrDxfEnJv+dGT/qm4IBH5yshtiS0g0=
-----END CERTIFICATE-----
