Certificate:
    Data:
        Version: 3 (0x2)
        Serial Number:
            32:3b:3b:5c:8b:aa:1c:16:72:2b:ba:89:aa:24:85:da
        Signature Algorithm: sha256WithRSAEncryption
        Issuer: CN=ca
        Validity
            Not Before: Dec 13 00:05:04 2022 GMT
            Not After : Mar 17 00:05:04 2025 GMT
        Subject: CN=172.18.152.246
        Subject Public Key Info:
            Public Key Algorithm: rsaEncryption
                Public-Key: (2048 bit)
                Modulus:
                    00:9f:73:b8:59:5f:03:74:97:b9:02:65:d2:8f:1b:
                    02:46:89:87:2f:fb:f9:9f:90:96:4e:95:5e:36:a0:
                    90:17:31:d4:1b:55:66:f5:46:2a:ff:c1:5a:fb:49:
                    5e:d5:46:2e:7d:7f:42:4b:38:02:b3:9e:bc:94:22:
                    2b:6c:df:6c:e9:e3:01:ac:1c:f8:a9:b5:6a:55:4a:
                    04:d1:60:bc:50:72:23:d5:0c:5d:3a:a5:2d:30:90:
                    4b:75:55:41:3a:b3:db:28:9f:fb:78:6f:9f:d8:d2:
                    6c:17:72:70:39:de:be:47:d0:2b:16:75:90:9b:44:
                    af:d6:3b:37:0e:d4:09:a3:c9:c8:c3:10:46:94:9e:
                    74:18:ab:6c:af:96:8b:2b:83:e1:75:37:f1:af:8d:
                    67:86:24:3f:c6:38:51:7c:fd:c2:64:1b:eb:3b:91:
                    9f:5c:d0:0c:60:05:14:f4:db:6b:c9:55:7b:77:6b:
                    8e:61:40:d8:92:9d:19:94:28:1a:a2:ae:ae:05:0c:
                    38:4e:ed:c2:35:15:5d:0a:6e:24:f5:81:24:41:f5:
                    28:5a:38:c8:be:9f:14:fe:34:a5:36:43:2f:7b:7c:
                    ae:c5:92:81:97:ec:66:93:fa:38:81:7c:09:e9:b0:
                    71:5b:d2:1f:0b:b6:11:6e:11:70:b4:19:c0:cb:43:
                    a4:c5
                Exponent: 65537 (0x10001)
        X509v3 extensions:
            X509v3 Basic Constraints: 
                CA:FALSE
            X509v3 Subject Key Identifier: 
                96:00:D8:FB:4F:D9:F8:6C:65:07:49:41:BF:30:B4:15:0B:80:8C:60
            X509v3 Authority Key Identifier: 
                keyid:1E:37:81:17:7E:94:C5:AB:29:57:37:53:49:8D:E6:20:DE:9A:65:13
                DirName:/CN=ca
                serial:70:4B:36:A9:30:12:22:DB:04:E4:C1:68:88:80:56:12:EE:44:D9:10
            X509v3 Extended Key Usage: 
                TLS Web Server Authentication
            X509v3 Key Usage: 
                Digital Signature, Key Encipherment
            X509v3 Subject Alternative Name: 
                IP Address:172.18.152.246
    Signature Algorithm: sha256WithRSAEncryption
    Signature Value:
        82:be:5f:79:0d:8f:00:74:16:26:bb:bc:2d:ae:fe:ae:a9:85:
        6e:86:56:72:6a:ec:2d:37:39:cf:73:dc:b1:80:2f:d1:00:a0:
        7f:bb:1f:6d:bd:64:12:d5:9b:91:dc:b1:1a:95:22:b8:98:ce:
        46:a5:61:5b:2e:b1:56:65:57:c2:76:90:67:ce:f5:53:73:54:
        dd:cd:10:89:d0:bc:cc:49:d6:d7:aa:4b:99:08:12:10:09:31:
        be:e3:26:f1:3c:34:e6:2c:1f:54:61:9d:e9:96:c6:32:9d:da:
        f2:80:10:23:4b:fb:bf:77:58:cf:c5:98:ce:d7:62:4d:6f:da:
        96:ff:a9:1f:7f:1c:1c:77:33:02:76:0a:38:f3:22:5b:c1:cb:
        db:ec:9e:2e:91:01:59:69:6f:1b:58:a2:d1:0e:5e:be:4c:4a:
        8b:05:13:95:d4:69:5f:6a:76:39:a5:fd:4b:69:d0:01:05:3d:
        ba:e7:f0:a8:11:bc:4f:d2:f4:1b:8f:ac:b8:ce:79:f4:60:d2:
        20:61:28:f8:a1:fd:c4:ce:97:1a:2d:c0:86:de:4c:f1:a3:06:
        6c:ac:75:ca:18:75:f8:b3:a6:ee:87:3b:6c:7e:86:ba:d6:00:
        c6:09:b3:10:96:81:19:87:a9:17:cb:52:21:76:e7:63:44:ef:
        4d:73:95:87
-----BEGIN CERTIFICATE-----
MIIDWzCCAkOgAwIBAgIQMjs7XIuqHBZyK7qJqiSF2jANBgkqhkiG9w0BAQsFADAN
MQswCQYDVQQDDAJjYTAeFw0yMjEyMTMwMDA1MDRaFw0yNTAzMTcwMDA1MDRaMBkx
FzAVBgNVBAMMDjE3Mi4xOC4xNTIuMjQ2MIIBIjANBgkqhkiG9w0BAQEFAAOCAQ8A
MIIBCgKCAQEAn3O4WV8DdJe5AmXSjxsCRomHL/v5n5CWTpVeNqCQFzHUG1Vm9UYq
/8Fa+0le1UYufX9CSzgCs568lCIrbN9s6eMBrBz4qbVqVUoE0WC8UHIj1QxdOqUt
MJBLdVVBOrPbKJ/7eG+f2NJsF3JwOd6+R9ArFnWQm0Sv1js3DtQJo8nIwxBGlJ50
GKtsr5aLK4PhdTfxr41nhiQ/xjhRfP3CZBvrO5GfXNAMYAUU9NtryVV7d2uOYUDY
kp0ZlCgaoq6uBQw4Tu3CNRVdCm4k9YEkQfUoWjjIvp8U/jSlNkMve3yuxZKBl+xm
k/o4gXwJ6bBxW9IfC7YRbhFwtBnAy0OkxQIDAQABo4GqMIGnMAkGA1UdEwQCMAAw
HQYDVR0OBBYEFJYA2PtP2fhsZQdJQb8wtBULgIxgMEgGA1UdIwRBMD+AFB43gRd+
lMWrKVc3U0mN5iDemmUToRGkDzANMQswCQYDVQQDDAJjYYIUcEs2qTASItsE5MFo
iIBWEu5E2RAwEwYDVR0lBAwwCgYIKwYBBQUHAwEwCwYDVR0PBAQDAgWgMA8GA1Ud
EQQIMAaHBKwSmPYwDQYJKoZIhvcNAQELBQADggEBAIK+X3kNjwB0Fia7vC2u/q6p
hW6GVnJq7C03Oc9z3LGAL9EAoH+7H229ZBLVm5HcsRqVIriYzkalYVsusVZlV8J2
kGfO9VNzVN3NEInQvMxJ1teqS5kIEhAJMb7jJvE8NOYsH1RhnemWxjKd2vKAECNL
+793WM/FmM7XYk1v2pb/qR9/HBx3MwJ2CjjzIlvBy9vsni6RAVlpbxtYotEOXr5M
SosFE5XUaV9qdjml/Utp0AEFPbrn8KgRvE/S9BuPrLjOefRg0iBhKPih/cTOlxot
wIbeTPGjBmysdcoYdfizpu6HO2x+hrrWAMYJsxCWgRmHqRfLUiF252NE701zlYc=
-----END CERTIFICATE-----
